; Function Attrs: nounwind uwtable
define range(i32 -22, 1) i32 @ff_formats_check_color_spaces(ptr noundef %0, ptr noundef readonly captures(address_is_null) %1) local_unnamed_addr #3 {
  %.not = icmp eq ptr %1, null
  br i1 %.not, label %check_list.exit, label %.lr.ph

.lr.ph:                                           ; preds = %2
  %3 = load i32, ptr %1, align 8, !tbaa !24
  %.not20 = icmp eq i32 %3, 0
  br i1 %.not20, label %.loopexit21.sink.split.i, label %.lr.ph19

.lr.ph19:                                         ; preds = %.lr.ph
  %4 = getelementptr inbounds nuw i8, ptr %1, i64 8
  %5 = load ptr, ptr %4, align 8, !tbaa !29
  %wide.trip.count = zext i32 %3 to i64
  br label %7

6:                                                ; preds = %7
  %indvars.iv.next = add nuw nsw i64 %indvars.iv, 1
  %exitcond.not = icmp eq i64 %indvars.iv.next, %wide.trip.count
  br i1 %exitcond.not, label %.preheader.i, label %7

7:                                                ; preds = %.lr.ph19, %6
  %indvars.iv = phi i64 [ 0, %.lr.ph19 ], [ %indvars.iv.next, %6 ]
  %8 = getelementptr inbounds nuw i32, ptr %5, i64 %indvars.iv
  %9 = load i32, ptr %8, align 4, !tbaa !19
  %10 = icmp eq i32 %9, 3
  br i1 %10, label %.critedge, label %6

.critedge:                                        ; preds = %7
  tail call void (ptr, i32, ptr, ...) @av_log(ptr noundef %0, i32 noundef 16, ptr noundef nonnull @.str.6) #10
  br label %check_list.exit

.preheader.i:                                     ; preds = %6
  %11 = getelementptr inbounds nuw i8, ptr %1, i64 8
  %12 = zext i32 %3 to i64
  br label %13

.loopexit.i:                                      ; preds = %18, %13
  %indvars.iv.next.i = add nuw nsw i64 %indvars.iv.i, 1
  %exitcond30.not.i = icmp eq i64 %indvars.iv.next28.i, %12
  br i1 %exitcond30.not.i, label %check_list.exit, label %13, !llvm.loop !123

13:                                               ; preds = %.loopexit.i, %.preheader.i
  %indvars.iv27.i = phi i64 [ 0, %.preheader.i ], [ %indvars.iv.next28.i, %.loopexit.i ]
  %indvars.iv.i = phi i64 [ 1, %.preheader.i ], [ %indvars.iv.next.i, %.loopexit.i ]
  %indvars.iv.next28.i = add nuw nsw i64 %indvars.iv27.i, 1
  %14 = icmp samesign ult i64 %indvars.iv.next28.i, %12
  br i1 %14, label %.lr.ph.i, label %.loopexit.i

.lr.ph.i:                                         ; preds = %13
  %15 = load ptr, ptr %11, align 8, !tbaa !29
  %16 = getelementptr inbounds nuw i32, ptr %15, i64 %indvars.iv27.i
  %17 = load i32, ptr %16, align 4, !tbaa !19
  br label %19

18:                                               ; preds = %19
  %indvars.iv.next25.i = add nuw nsw i64 %indvars.iv24.i, 1
  %lftr.wideiv = trunc i64 %indvars.iv.next25.i to i32
  %exitcond22 = icmp eq i32 %3, %lftr.wideiv
  br i1 %exitcond22, label %.loopexit.i, label %19, !llvm.loop !124

19:                                               ; preds = %18, %.lr.ph.i
  %indvars.iv24.i = phi i64 [ %indvars.iv.i, %.lr.ph.i ], [ %indvars.iv.next25.i, %18 ]
  %20 = getelementptr inbounds nuw i32, ptr %15, i64 %indvars.iv24.i
  %21 = load i32, ptr %20, align 4, !tbaa !19
  %22 = icmp eq i32 %17, %21
  br i1 %22, label %.loopexit21.sink.split.i, label %18

.loopexit21.sink.split.i:                         ; preds = %19, %.lr.ph
  %.str.19.sink.i = phi ptr [ @.str.18, %.lr.ph ], [ @.str.19, %19 ]
  tail call void (ptr, i32, ptr, ...) @av_log(ptr noundef %0, i32 noundef 16, ptr noundef nonnull %.str.19.sink.i, ptr noundef nonnull @.str.7) #10
  br label %check_list.exit

check_list.exit:                                  ; preds = %.loopexit.i, %2, %.loopexit21.sink.split.i, %.critedge
  %.1 = phi i32 [ -22, %.critedge ], [ -22, %.loopexit21.sink.split.i ], [ 0, %2 ], [ 0, %.loopexit.i ]
  ret i32 %.1
}